target datalayout = "e-m:e-p270:32:32-p271:32:32-p272:64:64-i64:64-i128:128-f80:128-n8:16:32:64-S128"
target triple = "x86_64-pc-linux-gnu"

%struct._cwd_state = type { ptr, i64 }
%struct._virtual_cwd_globals = type { %struct._cwd_state, i64, i64, i64, [1024 x ptr] }

@cwd_globals = hidden global %struct._virtual_cwd_globals zeroinitializer, align 8

; Function Attrs: nounwind uwtable
define dso_local ptr @virtual_realpath(ptr noundef %0, ptr noundef %1) #0 {
  %3 = alloca ptr, align 8
  %4 = alloca ptr, align 8
  %5 = alloca %struct._cwd_state, align 8
  %6 = alloca ptr, align 8
  %7 = alloca [4096 x i8], align 16
  %8 = alloca i64, align 8
  store ptr %0, ptr %3, align 8, !tbaa !12
  store ptr %1, ptr %4, align 8, !tbaa !12
  call void @llvm.lifetime.start.p0(i64 16, ptr %5) #16
  call void @llvm.lifetime.start.p0(i64 8, ptr %6) #16
  call void @llvm.lifetime.start.p0(i64 4096, ptr %7) #16
  %9 = load ptr, ptr %3, align 8, !tbaa !12
  %10 = load i8, ptr %9, align 1, !tbaa !4
  %11 = icmp ne i8 %10, 0
  br i1 %11, label %25, label %12

12:                                               ; preds = %2
  %13 = call noalias ptr @_emalloc_8()
  %14 = getelementptr inbounds nuw %struct._cwd_state, ptr %5, i32 0, i32 0
  store ptr %13, ptr %14, align 8, !tbaa !7
  %15 = getelementptr inbounds nuw %struct._cwd_state, ptr %5, i32 0, i32 0
  %16 = load ptr, ptr %15, align 8, !tbaa !7
  %17 = getelementptr inbounds i8, ptr %16, i64 0
  store i8 0, ptr %17, align 1, !tbaa !4
  %18 = getelementptr inbounds nuw %struct._cwd_state, ptr %5, i32 0, i32 1
  store i64 0, ptr %18, align 8, !tbaa !13
  %19 = getelementptr inbounds [4096 x i8], ptr %7, i64 0, i64 0
  %20 = call ptr @getcwd(ptr noundef %19, i64 noundef 4096) #16
  %21 = icmp ne ptr %20, null
  br i1 %21, label %22, label %24

22:                                               ; preds = %12
  %23 = getelementptr inbounds [4096 x i8], ptr %7, i64 0, i64 0
  store ptr %23, ptr %3, align 8, !tbaa !12
  br label %24

24:                                               ; preds = %22, %12
  br label %311

25:                                               ; preds = %2
  %26 = load ptr, ptr %3, align 8, !tbaa !12
  %27 = getelementptr inbounds i8, ptr %26, i64 0
  %28 = load i8, ptr %27, align 1, !tbaa !4
  %29 = sext i8 %28 to i32
  %30 = icmp eq i32 %29, 47
  br i1 %30, label %303, label %31

31:                                               ; preds = %25
  %32 = load i64, ptr getelementptr inbounds nuw (%struct._cwd_state, ptr @cwd_globals, i32 0, i32 1), align 8, !tbaa !16
  %33 = getelementptr inbounds nuw %struct._cwd_state, ptr %5, i32 0, i32 1
  store i64 %32, ptr %33, align 8, !tbaa !13
  %34 = load i64, ptr getelementptr inbounds nuw (%struct._cwd_state, ptr @cwd_globals, i32 0, i32 1), align 8, !tbaa !16
  %35 = add i64 %34, 1
  %36 = call i1 @llvm.is.constant.i64(i64 %35)
  br i1 %36, label %37, label %291

37:                                               ; preds = %31
  %38 = load i64, ptr getelementptr inbounds nuw (%struct._cwd_state, ptr @cwd_globals, i32 0, i32 1), align 8, !tbaa !16
  %39 = add i64 %38, 1
  %40 = icmp ule i64 %39, 8
  br i1 %40, label %41, label %43

41:                                               ; preds = %37
  %42 = call noalias ptr @_emalloc_8()
  br label %289

43:                                               ; preds = %37
  %44 = load i64, ptr getelementptr inbounds nuw (%struct._cwd_state, ptr @cwd_globals, i32 0, i32 1), align 8, !tbaa !16
  %45 = add i64 %44, 1
  %46 = icmp ule i64 %45, 16
  br i1 %46, label %47, label %49

47:                                               ; preds = %43
  %48 = call noalias ptr @_emalloc_16()
  br label %287

49:                                               ; preds = %43
  %50 = load i64, ptr getelementptr inbounds nuw (%struct._cwd_state, ptr @cwd_globals, i32 0, i32 1), align 8, !tbaa !16
  %51 = add i64 %50, 1
  %52 = icmp ule i64 %51, 24
  br i1 %52, label %53, label %55

53:                                               ; preds = %49
  %54 = call noalias ptr @_emalloc_24()
  br label %285

55:                                               ; preds = %49
  %56 = load i64, ptr getelementptr inbounds nuw (%struct._cwd_state, ptr @cwd_globals, i32 0, i32 1), align 8, !tbaa !16
  %57 = add i64 %56, 1
  %58 = icmp ule i64 %57, 32
  br i1 %58, label %59, label %61

59:                                               ; preds = %55
  %60 = call noalias ptr @_emalloc_32()
  br label %283

61:                                               ; preds = %55
  %62 = load i64, ptr getelementptr inbounds nuw (%struct._cwd_state, ptr @cwd_globals, i32 0, i32 1), align 8, !tbaa !16
  %63 = add i64 %62, 1
  %64 = icmp ule i64 %63, 40
  br i1 %64, label %65, label %67

65:                                               ; preds = %61
  %66 = call noalias ptr @_emalloc_40()
  br label %281

67:                                               ; preds = %61
  %68 = load i64, ptr getelementptr inbounds nuw (%struct._cwd_state, ptr @cwd_globals, i32 0, i32 1), align 8, !tbaa !16
  %69 = add i64 %68, 1
  %70 = icmp ule i64 %69, 48
  br i1 %70, label %71, label %73

71:                                               ; preds = %67
  %72 = call noalias ptr @_emalloc_48()
  br label %279

73:                                               ; preds = %67
  %74 = load i64, ptr getelementptr inbounds nuw (%struct._cwd_state, ptr @cwd_globals, i32 0, i32 1), align 8, !tbaa !16
  %75 = add i64 %74, 1
  %76 = icmp ule i64 %75, 56
  br i1 %76, label %77, label %79

77:                                               ; preds = %73
  %78 = call noalias ptr @_emalloc_56()
  br label %277

79:                                               ; preds = %73
  %80 = load i64, ptr getelementptr inbounds nuw (%struct._cwd_state, ptr @cwd_globals, i32 0, i32 1), align 8, !tbaa !16
  %81 = add i64 %80, 1
  %82 = icmp ule i64 %81, 64
  br i1 %82, label %83, label %85

83:                                               ; preds = %79
  %84 = call noalias ptr @_emalloc_64()
  br label %275

85:                                               ; preds = %79
  %86 = load i64, ptr getelementptr inbounds nuw (%struct._cwd_state, ptr @cwd_globals, i32 0, i32 1), align 8, !tbaa !16
  %87 = add i64 %86, 1
  %88 = icmp ule i64 %87, 80
  br i1 %88, label %89, label %91

89:                                               ; preds = %85
  %90 = call noalias ptr @_emalloc_80()
  br label %273

91:                                               ; preds = %85
  %92 = load i64, ptr getelementptr inbounds nuw (%struct._cwd_state, ptr @cwd_globals, i32 0, i32 1), align 8, !tbaa !16
  %93 = add i64 %92, 1
  %94 = icmp ule i64 %93, 96
  br i1 %94, label %95, label %97

95:                                               ; preds = %91
  %96 = call noalias ptr @_emalloc_96()
  br label %271

97:                                               ; preds = %91
  %98 = load i64, ptr getelementptr inbounds nuw (%struct._cwd_state, ptr @cwd_globals, i32 0, i32 1), align 8, !tbaa !16
  %99 = add i64 %98, 1
  %100 = icmp ule i64 %99, 112
  br i1 %100, label %101, label %103

101:                                              ; preds = %97
  %102 = call noalias ptr @_emalloc_112()
  br label %269

103:                                              ; preds = %97
  %104 = load i64, ptr getelementptr inbounds nuw (%struct._cwd_state, ptr @cwd_globals, i32 0, i32 1), align 8, !tbaa !16
  %105 = add i64 %104, 1
  %106 = icmp ule i64 %105, 128
  br i1 %106, label %107, label %109

107:                                              ; preds = %103
  %108 = call noalias ptr @_emalloc_128()
  br label %267

109:                                              ; preds = %103
  %110 = load i64, ptr getelementptr inbounds nuw (%struct._cwd_state, ptr @cwd_globals, i32 0, i32 1), align 8, !tbaa !16
  %111 = add i64 %110, 1
  %112 = icmp ule i64 %111, 160
  br i1 %112, label %113, label %115

113:                                              ; preds = %109
  %114 = call noalias ptr @_emalloc_160()
  br label %265

115:                                              ; preds = %109
  %116 = load i64, ptr getelementptr inbounds nuw (%struct._cwd_state, ptr @cwd_globals, i32 0, i32 1), align 8, !tbaa !16
  %117 = add i64 %116, 1
  %118 = icmp ule i64 %117, 192
  br i1 %118, label %119, label %121

119:                                              ; preds = %115
  %120 = call noalias ptr @_emalloc_192()
  br label %263

121:                                              ; preds = %115
  %122 = load i64, ptr getelementptr inbounds nuw (%struct._cwd_state, ptr @cwd_globals, i32 0, i32 1), align 8, !tbaa !16
  %123 = add i64 %122, 1
  %124 = icmp ule i64 %123, 224
  br i1 %124, label %125, label %127

125:                                              ; preds = %121
  %126 = call noalias ptr @_emalloc_224()
  br label %261

127:                                              ; preds = %121
  %128 = load i64, ptr getelementptr inbounds nuw (%struct._cwd_state, ptr @cwd_globals, i32 0, i32 1), align 8, !tbaa !16
  %129 = add i64 %128, 1
  %130 = icmp ule i64 %129, 256
  br i1 %130, label %131, label %133

131:                                              ; preds = %127
  %132 = call noalias ptr @_emalloc_256()
  br label %259

133:                                              ; preds = %127
  %134 = load i64, ptr getelementptr inbounds nuw (%struct._cwd_state, ptr @cwd_globals, i32 0, i32 1), align 8, !tbaa !16
  %135 = add i64 %134, 1
  %136 = icmp ule i64 %135, 320
  br i1 %136, label %137, label %139

137:                                              ; preds = %133
  %138 = call noalias ptr @_emalloc_320()
  br label %257

139:                                              ; preds = %133
  %140 = load i64, ptr getelementptr inbounds nuw (%struct._cwd_state, ptr @cwd_globals, i32 0, i32 1), align 8, !tbaa !16
  %141 = add i64 %140, 1
  %142 = icmp ule i64 %141, 384
  br i1 %142, label %143, label %145

143:                                              ; preds = %139
  %144 = call noalias ptr @_emalloc_384()
  br label %255

145:                                              ; preds = %139
  %146 = load i64, ptr getelementptr inbounds nuw (%struct._cwd_state, ptr @cwd_globals, i32 0, i32 1), align 8, !tbaa !16
  %147 = add i64 %146, 1
  %148 = icmp ule i64 %147, 448
  br i1 %148, label %149, label %151

149:                                              ; preds = %145
  %150 = call noalias ptr @_emalloc_448()
  br label %253

151:                                              ; preds = %145
  %152 = load i64, ptr getelementptr inbounds nuw (%struct._cwd_state, ptr @cwd_globals, i32 0, i32 1), align 8, !tbaa !16
  %153 = add i64 %152, 1
  %154 = icmp ule i64 %153, 512
  br i1 %154, label %155, label %157

155:                                              ; preds = %151
  %156 = call noalias ptr @_emalloc_512()
  br label %251

157:                                              ; preds = %151
  %158 = load i64, ptr getelementptr inbounds nuw (%struct._cwd_state, ptr @cwd_globals, i32 0, i32 1), align 8, !tbaa !16
  %159 = add i64 %158, 1
  %160 = icmp ule i64 %159, 640
  br i1 %160, label %161, label %163

161:                                              ; preds = %157
  %162 = call noalias ptr @_emalloc_640()
  br label %249

163:                                              ; preds = %157
  %164 = load i64, ptr getelementptr inbounds nuw (%struct._cwd_state, ptr @cwd_globals, i32 0, i32 1), align 8, !tbaa !16
  %165 = add i64 %164, 1
  %166 = icmp ule i64 %165, 768
  br i1 %166, label %167, label %169

167:                                              ; preds = %163
  %168 = call noalias ptr @_emalloc_768()
  br label %247

169:                                              ; preds = %163
  %170 = load i64, ptr getelementptr inbounds nuw (%struct._cwd_state, ptr @cwd_globals, i32 0, i32 1), align 8, !tbaa !16
  %171 = add i64 %170, 1
  %172 = icmp ule i64 %171, 896
  br i1 %172, label %173, label %175

173:                                              ; preds = %169
  %174 = call noalias ptr @_emalloc_896()
  br label %245

175:                                              ; preds = %169
  %176 = load i64, ptr getelementptr inbounds nuw (%struct._cwd_state, ptr @cwd_globals, i32 0, i32 1), align 8, !tbaa !16
  %177 = add i64 %176, 1
  %178 = icmp ule i64 %177, 1024
  br i1 %178, label %179, label %181

179:                                              ; preds = %175
  %180 = call noalias ptr @_emalloc_1024()
  br label %243

181:                                              ; preds = %175
  %182 = load i64, ptr getelementptr inbounds nuw (%struct._cwd_state, ptr @cwd_globals, i32 0, i32 1), align 8, !tbaa !16
  %183 = add i64 %182, 1
  %184 = icmp ule i64 %183, 1280
  br i1 %184, label %185, label %187

185:                                              ; preds = %181
  %186 = call noalias ptr @_emalloc_1280()
  br label %241

187:                                              ; preds = %181
  %188 = load i64, ptr getelementptr inbounds nuw (%struct._cwd_state, ptr @cwd_globals, i32 0, i32 1), align 8, !tbaa !16
  %189 = add i64 %188, 1
  %190 = icmp ule i64 %189, 1536
  br i1 %190, label %191, label %193

191:                                              ; preds = %187
  %192 = call noalias ptr @_emalloc_1536()
  br label %239

193:                                              ; preds = %187
  %194 = load i64, ptr getelementptr inbounds nuw (%struct._cwd_state, ptr @cwd_globals, i32 0, i32 1), align 8, !tbaa !16
  %195 = add i64 %194, 1
  %196 = icmp ule i64 %195, 1792
  br i1 %196, label %197, label %199

197:                                              ; preds = %193
  %198 = call noalias ptr @_emalloc_1792()
  br label %237

199:                                              ; preds = %193
  %200 = load i64, ptr getelementptr inbounds nuw (%struct._cwd_state, ptr @cwd_globals, i32 0, i32 1), align 8, !tbaa !16
  %201 = add i64 %200, 1
  %202 = icmp ule i64 %201, 2048
  br i1 %202, label %203, label %205

203:                                              ; preds = %199
  %204 = call noalias ptr @_emalloc_2048()
  br label %235

205:                                              ; preds = %199
  %206 = load i64, ptr getelementptr inbounds nuw (%struct._cwd_state, ptr @cwd_globals, i32 0, i32 1), align 8, !tbaa !16
  %207 = add i64 %206, 1
  %208 = icmp ule i64 %207, 2560
  br i1 %208, label %209, label %211

209:                                              ; preds = %205
  %210 = call noalias ptr @_emalloc_2560()
  br label %233

211:                                              ; preds = %205
  %212 = load i64, ptr getelementptr inbounds nuw (%struct._cwd_state, ptr @cwd_globals, i32 0, i32 1), align 8, !tbaa !16
  %213 = add i64 %212, 1
  %214 = icmp ule i64 %213, 3072
  br i1 %214, label %215, label %217

215:                                              ; preds = %211
  %216 = call noalias ptr @_emalloc_3072()
  br label %231

217:                                              ; preds = %211
  %218 = load i64, ptr getelementptr inbounds nuw (%struct._cwd_state, ptr @cwd_globals, i32 0, i32 1), align 8, !tbaa !16
  %219 = add i64 %218, 1
  %220 = icmp ule i64 %219, 2093056
  br i1 %220, label %221, label %225

221:                                              ; preds = %217
  %222 = load i64, ptr getelementptr inbounds nuw (%struct._cwd_state, ptr @cwd_globals, i32 0, i32 1), align 8, !tbaa !16
  %223 = add i64 %222, 1
  %224 = call noalias ptr @_emalloc_large(i64 noundef %223) #18
  br label %229

225:                                              ; preds = %217
  %226 = load i64, ptr getelementptr inbounds nuw (%struct._cwd_state, ptr @cwd_globals, i32 0, i32 1), align 8, !tbaa !16
  %227 = add i64 %226, 1
  %228 = call noalias ptr @_emalloc_huge(i64 noundef %227) #18
  br label %229

229:                                              ; preds = %225, %221
  %230 = phi ptr [ %224, %221 ], [ %228, %225 ]
  br label %231

231:                                              ; preds = %229, %215
  %232 = phi ptr [ %216, %215 ], [ %230, %229 ]
  br label %233

233:                                              ; preds = %231, %209
  %234 = phi ptr [ %210, %209 ], [ %232, %231 ]
  br label %235

235:                                              ; preds = %233, %203
  %236 = phi ptr [ %204, %203 ], [ %234, %233 ]
  br label %237

237:                                              ; preds = %235, %197
  %238 = phi ptr [ %198, %197 ], [ %236, %235 ]
  br label %239

239:                                              ; preds = %237, %191
  %240 = phi ptr [ %192, %191 ], [ %238, %237 ]
  br label %241

241:                                              ; preds = %239, %185
  %242 = phi ptr [ %186, %185 ], [ %240, %239 ]
  br label %243

243:                                              ; preds = %241, %179
  %244 = phi ptr [ %180, %179 ], [ %242, %241 ]
  br label %245

245:                                              ; preds = %243, %173
  %246 = phi ptr [ %174, %173 ], [ %244, %243 ]
  br label %247

247:                                              ; preds = %245, %167
  %248 = phi ptr [ %168, %167 ], [ %246, %245 ]
  br label %249

249:                                              ; preds = %247, %161
  %250 = phi ptr [ %162, %161 ], [ %248, %247 ]
  br label %251

251:                                              ; preds = %249, %155
  %252 = phi ptr [ %156, %155 ], [ %250, %249 ]
  br label %253

253:                                              ; preds = %251, %149
  %254 = phi ptr [ %150, %149 ], [ %252, %251 ]
  br label %255

255:                                              ; preds = %253, %143
  %256 = phi ptr [ %144, %143 ], [ %254, %253 ]
  br label %257

257:                                              ; preds = %255, %137
  %258 = phi ptr [ %138, %137 ], [ %256, %255 ]
  br label %259

259:                                              ; preds = %257, %131
  %260 = phi ptr [ %132, %131 ], [ %258, %257 ]
  br label %261

261:                                              ; preds = %259, %125
  %262 = phi ptr [ %126, %125 ], [ %260, %259 ]
  br label %263

263:                                              ; preds = %261, %119
  %264 = phi ptr [ %120, %119 ], [ %262, %261 ]
  br label %265

265:                                              ; preds = %263, %113
  %266 = phi ptr [ %114, %113 ], [ %264, %263 ]
  br label %267

267:                                              ; preds = %265, %107
  %268 = phi ptr [ %108, %107 ], [ %266, %265 ]
  br label %269

269:                                              ; preds = %267, %101
  %270 = phi ptr [ %102, %101 ], [ %268, %267 ]
  br label %271

271:                                              ; preds = %269, %95
  %272 = phi ptr [ %96, %95 ], [ %270, %269 ]
  br label %273

273:                                              ; preds = %271, %89
  %274 = phi ptr [ %90, %89 ], [ %272, %271 ]
  br label %275

275:                                              ; preds = %273, %83
  %276 = phi ptr [ %84, %83 ], [ %274, %273 ]
  br label %277

277:                                              ; preds = %275, %77
  %278 = phi ptr [ %78, %77 ], [ %276, %275 ]
  br label %279

279:                                              ; preds = %277, %71
  %280 = phi ptr [ %72, %71 ], [ %278, %277 ]
  br label %281

281:                                              ; preds = %279, %65
  %282 = phi ptr [ %66, %65 ], [ %280, %279 ]
  br label %283

283:                                              ; preds = %281, %59
  %284 = phi ptr [ %60, %59 ], [ %282, %281 ]
  br label %285

285:                                              ; preds = %283, %53
  %286 = phi ptr [ %54, %53 ], [ %284, %283 ]
  br label %287

287:                                              ; preds = %285, %47
  %288 = phi ptr [ %48, %47 ], [ %286, %285 ]
  br label %289

289:                                              ; preds = %287, %41
  %290 = phi ptr [ %42, %41 ], [ %288, %287 ]
  br label %295

291:                                              ; preds = %31
  %292 = load i64, ptr getelementptr inbounds nuw (%struct._cwd_state, ptr @cwd_globals, i32 0, i32 1), align 8, !tbaa !16
  %293 = add i64 %292, 1
  %294 = call noalias ptr @_emalloc(i64 noundef %293) #18
  br label %295

295:                                              ; preds = %291, %289
  %296 = phi ptr [ %290, %289 ], [ %294, %291 ]
  %297 = getelementptr inbounds nuw %struct._cwd_state, ptr %5, i32 0, i32 0
  store ptr %296, ptr %297, align 8, !tbaa !7
  %298 = getelementptr inbounds nuw %struct._cwd_state, ptr %5, i32 0, i32 0
  %299 = load ptr, ptr %298, align 8, !tbaa !7
  %300 = load ptr, ptr @cwd_globals, align 8, !tbaa !18
  %301 = load i64, ptr getelementptr inbounds nuw (%struct._cwd_state, ptr @cwd_globals, i32 0, i32 1), align 8, !tbaa !16
  %302 = add i64 %301, 1
  call void @llvm.memcpy.p0.p0.i64(ptr align 1 %299, ptr align 1 %300, i64 %302, i1 false)
  br label %310

303:                                              ; preds = %25
  %304 = call noalias ptr @_emalloc_8()
  %305 = getelementptr inbounds nuw %struct._cwd_state, ptr %5, i32 0, i32 0
  store ptr %304, ptr %305, align 8, !tbaa !7
  %306 = getelementptr inbounds nuw %struct._cwd_state, ptr %5, i32 0, i32 0
  %307 = load ptr, ptr %306, align 8, !tbaa !7
  %308 = getelementptr inbounds i8, ptr %307, i64 0
  store i8 0, ptr %308, align 1, !tbaa !4
  %309 = getelementptr inbounds nuw %struct._cwd_state, ptr %5, i32 0, i32 1
  store i64 0, ptr %309, align 8, !tbaa !13
  br label %310

310:                                              ; preds = %303, %295
  br label %311

311:                                              ; preds = %310, %24
  %312 = load ptr, ptr %3, align 8, !tbaa !12
  %313 = call i32 @virtual_file_ex(ptr noundef %5, ptr noundef %312, ptr noundef null, i32 noundef 2)
  %314 = icmp eq i32 %313, 0
  br i1 %314, label %315, label %333

315:                                              ; preds = %311
  call void @llvm.lifetime.start.p0(i64 8, ptr %8) #16
  %316 = getelementptr inbounds nuw %struct._cwd_state, ptr %5, i32 0, i32 1
  %317 = load i64, ptr %316, align 8, !tbaa !13
  %318 = icmp ugt i64 %317, 4095
  br i1 %318, label %319, label %320

319:                                              ; preds = %315
  br label %323

320:                                              ; preds = %315
  %321 = getelementptr inbounds nuw %struct._cwd_state, ptr %5, i32 0, i32 1
  %322 = load i64, ptr %321, align 8, !tbaa !13
  br label %323

323:                                              ; preds = %320, %319
  %324 = phi i64 [ 4095, %319 ], [ %322, %320 ]
  store i64 %324, ptr %8, align 8, !tbaa !26
  %325 = load ptr, ptr %4, align 8, !tbaa !12
  %326 = getelementptr inbounds nuw %struct._cwd_state, ptr %5, i32 0, i32 0
  %327 = load ptr, ptr %326, align 8, !tbaa !7
  %328 = load i64, ptr %8, align 8, !tbaa !26
  call void @llvm.memcpy.p0.p0.i64(ptr align 1 %325, ptr align 1 %327, i64 %328, i1 false)
  %329 = load ptr, ptr %4, align 8, !tbaa !12
  %330 = load i64, ptr %8, align 8, !tbaa !26
  %331 = getelementptr inbounds nuw i8, ptr %329, i64 %330
  store i8 0, ptr %331, align 1, !tbaa !4
  %332 = load ptr, ptr %4, align 8, !tbaa !12
  store ptr %332, ptr %6, align 8, !tbaa !12
  call void @llvm.lifetime.end.p0(i64 8, ptr %8) #16
  br label %334

333:                                              ; preds = %311
  store ptr null, ptr %6, align 8, !tbaa !12
  br label %334

334:                                              ; preds = %333, %323
  %335 = getelementptr inbounds nuw %struct._cwd_state, ptr %5, i32 0, i32 0
  %336 = load ptr, ptr %335, align 8, !tbaa !7
  call void @_efree(ptr noundef %336)
  %337 = getelementptr inbounds nuw %struct._cwd_state, ptr %5, i32 0, i32 1
  store i64 0, ptr %337, align 8, !tbaa !13
  %338 = load ptr, ptr %6, align 8, !tbaa !12
  call void @llvm.lifetime.end.p0(i64 4096, ptr %7) #16
  call void @llvm.lifetime.end.p0(i64 8, ptr %6) #16
  call void @llvm.lifetime.end.p0(i64 16, ptr %5) #16
  ret ptr %338
}