; Function Attrs: nounwind uwtable
define dso_local noundef ptr @virtual_realpath(ptr noundef readonly captures(none) %0, ptr noundef writeonly captures(ret: address, provenance) %1) local_unnamed_addr #0 {
  %3 = alloca %struct._cwd_state, align 8
  %4 = alloca [4096 x i8], align 16
  call void @llvm.lifetime.start.p0(i64 16, ptr nonnull %3) #22
  call void @llvm.lifetime.start.p0(i64 4096, ptr nonnull %4) #22
  %5 = load i8, ptr %0, align 1, !tbaa !11
  switch i8 %5, label %10 [
    i8 0, label %6
    i8 47, label %18
  ]

6:                                                ; preds = %2
  %7 = tail call noalias ptr @_emalloc_8() #22
  store ptr %7, ptr %3, align 8, !tbaa !4
  store i8 0, ptr %7, align 1, !tbaa !11
  %8 = getelementptr inbounds nuw i8, ptr %3, i64 8
  store i64 0, ptr %8, align 8, !tbaa !12
  %9 = call ptr @getcwd(ptr noundef nonnull %4, i64 noundef 4096) #22
  %.not11 = icmp eq ptr %9, null
  %spec.select = select i1 %.not11, ptr %0, ptr %4
  br label %21

10:                                               ; preds = %2
  %11 = load i64, ptr getelementptr inbounds nuw (i8, ptr @cwd_globals, i64 8), align 8, !tbaa !13
  %12 = getelementptr inbounds nuw i8, ptr %3, i64 8
  store i64 %11, ptr %12, align 8, !tbaa !12
  %13 = add i64 %11, 1
  %14 = tail call noalias ptr @_emalloc(i64 noundef %13) #24
  store ptr %14, ptr %3, align 8, !tbaa !4
  %15 = load ptr, ptr @cwd_globals, align 8, !tbaa !15
  %16 = load i64, ptr getelementptr inbounds nuw (i8, ptr @cwd_globals, i64 8), align 8, !tbaa !13
  %17 = add i64 %16, 1
  tail call void @llvm.memcpy.p0.p0.i64(ptr align 1 %14, ptr align 1 %15, i64 %17, i1 false)
  br label %21

18:                                               ; preds = %2
  %19 = tail call noalias ptr @_emalloc_8() #22
  store ptr %19, ptr %3, align 8, !tbaa !4
  store i8 0, ptr %19, align 1, !tbaa !11
  %20 = getelementptr inbounds nuw i8, ptr %3, i64 8
  store i64 0, ptr %20, align 8, !tbaa !12
  br label %21

21:                                               ; preds = %6, %10, %18
  %.0 = phi ptr [ %0, %18 ], [ %0, %10 ], [ %spec.select, %6 ]
  %22 = call i32 @virtual_file_ex(ptr noundef nonnull %3, ptr noundef nonnull %.0, ptr noundef null, i32 noundef 2)
  %23 = icmp eq i32 %22, 0
  %.pre = load ptr, ptr %3, align 8, !tbaa !4
  br i1 %23, label %24, label %29

24:                                               ; preds = %21
  %25 = getelementptr inbounds nuw i8, ptr %3, i64 8
  %26 = load i64, ptr %25, align 8, !tbaa !12
  %27 = call i64 @llvm.umin.i64(i64 %26, i64 4095)
  call void @llvm.memcpy.p0.p0.i64(ptr align 1 %1, ptr align 1 %.pre, i64 %27, i1 false)
  %28 = getelementptr inbounds nuw i8, ptr %1, i64 %27
  store i8 0, ptr %28, align 1, !tbaa !11
  br label %29

29:                                               ; preds = %21, %24
  %.08 = phi ptr [ %1, %24 ], [ null, %21 ]
  call void @_efree(ptr noundef %.pre) #22
  call void @llvm.lifetime.end.p0(i64 4096, ptr nonnull %4) #22
  call void @llvm.lifetime.end.p0(i64 16, ptr nonnull %3) #22
  ret ptr %.08
}